; Function Attrs: mustprogress nounwind uwtable
define hidden void @_ZN6hermes2vm17JSRegExpBuildMetaEPKNS0_6GCCellERNS0_8Metadata7BuilderE(ptr noundef %cell, ptr noundef nonnull align 8 dereferenceable(224) %mb) local_unnamed_addr #0 {
entry:
  %hasValue_.i.i = getelementptr inbounds i8, ptr %mb, i64 212
  %0 = load i8, ptr %hasValue_.i.i, align 4
  %1 = and i8 %0, 1
  %tobool.i.not.i = icmp eq i8 %1, 0
  br i1 %tobool.i.not.i, label %if.then.i, label %_ZN6hermes2vm8Metadata7Builder23addJSObjectOverlapSlotsEj.exit

if.then.i:                                        ; preds = %entry
  %jsObjectOverlapSlots_.i = getelementptr inbounds i8, ptr %mb, i64 208
  store i32 5, ptr %jsObjectOverlapSlots_.i, align 8
  store i8 1, ptr %hasValue_.i.i, align 4
  br label %_ZN6hermes2vm8Metadata7Builder23addJSObjectOverlapSlotsEj.exit

_ZN6hermes2vm8Metadata7Builder23addJSObjectOverlapSlotsEj.exit: ; preds = %entry, %if.then.i
  tail call void @_ZN6hermes2vm17JSObjectBuildMetaEPKNS0_6GCCellERNS0_8Metadata7BuilderE(ptr noundef %cell, ptr noundef nonnull align 8 dereferenceable(224) %mb) #19
  %vtp_.i = getelementptr inbounds i8, ptr %mb, i64 216
  store ptr @_ZN6hermes2vm8JSRegExp2vtE, ptr %vtp_.i, align 8
  %pattern_ = getelementptr inbounds i8, ptr %cell, i64 20
  tail call void @_ZN6hermes2vm8Metadata7Builder8addFieldEPKNS0_13GCPointerBaseE(ptr noundef nonnull align 8 dereferenceable(224) %mb, ptr noundef nonnull %pattern_) #19
  %groupNameMappings_ = getelementptr inbounds i8, ptr %cell, i64 40
  tail call void @_ZN6hermes2vm8Metadata7Builder8addFieldEPKNS0_13GCPointerBaseE(ptr noundef nonnull align 8 dereferenceable(224) %mb, ptr noundef nonnull %groupNameMappings_) #19
  ret void
}